target datalayout = "e-m:e-p270:32:32-p271:32:32-p272:64:64-i64:64-i128:128-f80:128-n8:16:32:64-S128"
target triple = "x86_64-pc-linux-gnu"

%struct.AVStream = type { ptr, i32, i32, ptr, ptr, %struct.AVRational, i64, i64, i64, i32, i32, %struct.AVRational, ptr, %struct.AVRational, %struct.AVPacket, i32, %struct.AVRational, i32 }
%struct.AVPacket = type { ptr, i64, i64, ptr, i32, i32, i32, ptr, i32, i64, i64, ptr, ptr, %struct.AVRational }
%struct.AVRational = type { i32, i32 }
%struct.AVCodecParameters = type { i32, i32, i32, ptr, i32, ptr, i32, i32, i64, i32, i32, i32, i32, i32, i32, %struct.AVRational, %struct.AVRational, i32, i32, i32, i32, i32, i32, i32, %struct.AVChannelLayout, i32, i32, i32, i32, i32, i32 }
%struct.AVChannelLayout = type { i32, i32, %union.anon, ptr }
%union.anon = type { i64 }
%struct.AVFormatContext = type { ptr, ptr, ptr, ptr, ptr, i32, i32, ptr, i32, ptr, i32, ptr, ptr, i64, i64, i64, i32, i32, i32, i64, i64, ptr, i32, i32, ptr, i32, i32, i32, i32, ptr, i64, i32, i32, %struct.AVIOInterruptCB, i32, i32, i32, i32, i64, i32, i32, i32, i32, i32, i32, i32, i32, i32, i32, i32, i32, i64, i32, i32, i32, i32, i32, ptr, ptr, ptr, ptr, i32, ptr, ptr, ptr, ptr, i32, ptr, ptr, i64, ptr, ptr, ptr, i64 }
%struct.AVIOInterruptCB = type { ptr, ptr }
%struct.FFFormatContext = type { %struct.AVFormatContext, i32, %struct.PacketList, i64, ptr, ptr, i32, ptr, i32 }
%struct.PacketList = type { ptr, ptr }

; Function Attrs: alwaysinline nounwind uwtable
define internal ptr @ffformatcontext(ptr noundef %0) #3 {
  %2 = alloca ptr, align 8
  store ptr %0, ptr %2, align 8, !tbaa !15
  %3 = load ptr, ptr %2, align 8, !tbaa !15
  ret ptr %3
}

; Function Attrs: nounwind uwtable
define internal i32 @read_header(ptr noundef %0) #0 {
  %2 = alloca i32, align 4
  %3 = alloca ptr, align 8
  %4 = alloca ptr, align 8
  %5 = alloca i32, align 4
  %6 = alloca i32, align 4
  store ptr %0, ptr %3, align 8, !tbaa !15
  call void @llvm.lifetime.start.p0(i64 8, ptr %4) #4
  %7 = load ptr, ptr %3, align 8, !tbaa !15
  %8 = call ptr @avformat_new_stream(ptr noundef %7, ptr noundef null)
  store ptr %8, ptr %4, align 8, !tbaa !17
  call void @llvm.lifetime.start.p0(i64 4, ptr %5) #4
  %9 = load ptr, ptr %4, align 8, !tbaa !17
  %10 = icmp ne ptr %9, null
  br i1 %10, label %12, label %11

11:                                               ; preds = %1
  store i32 -12, ptr %2, align 4
  store i32 1, ptr %6, align 4
  br label %116

12:                                               ; preds = %1
  %13 = load ptr, ptr %4, align 8, !tbaa !17
  %14 = getelementptr inbounds nuw %struct.AVStream, ptr %13, i32 0, i32 3
  %15 = load ptr, ptr %14, align 8, !tbaa !19
  %16 = getelementptr inbounds nuw %struct.AVCodecParameters, ptr %15, i32 0, i32 0
  store i32 1, ptr %16, align 8, !tbaa !29
  %17 = load ptr, ptr %4, align 8, !tbaa !17
  %18 = getelementptr inbounds nuw %struct.AVStream, ptr %17, i32 0, i32 3
  %19 = load ptr, ptr %18, align 8, !tbaa !19
  %20 = getelementptr inbounds nuw %struct.AVCodecParameters, ptr %19, i32 0, i32 1
  store i32 69638, ptr %20, align 4, !tbaa !32
  %21 = load ptr, ptr %3, align 8, !tbaa !15
  %22 = getelementptr inbounds nuw %struct.AVFormatContext, ptr %21, i32 0, i32 4
  %23 = load ptr, ptr %22, align 8, !tbaa !33
  %24 = call i32 @avio_rl32(ptr noundef %23)
  %25 = load ptr, ptr %3, align 8, !tbaa !15
  %26 = getelementptr inbounds nuw %struct.AVFormatContext, ptr %25, i32 0, i32 4
  %27 = load ptr, ptr %26, align 8, !tbaa !33
  %28 = call i32 @avio_rl32(ptr noundef %27)
  %29 = load ptr, ptr %3, align 8, !tbaa !15
  %30 = getelementptr inbounds nuw %struct.AVFormatContext, ptr %29, i32 0, i32 4
  %31 = load ptr, ptr %30, align 8, !tbaa !33
  %32 = call i32 @avio_rl32(ptr noundef %31)
  %33 = load ptr, ptr %4, align 8, !tbaa !17
  %34 = getelementptr inbounds nuw %struct.AVStream, ptr %33, i32 0, i32 3
  %35 = load ptr, ptr %34, align 8, !tbaa !19
  %36 = getelementptr inbounds nuw %struct.AVCodecParameters, ptr %35, i32 0, i32 25
  store i32 %32, ptr %36, align 8, !tbaa !45
  %37 = load ptr, ptr %3, align 8, !tbaa !15
  %38 = getelementptr inbounds nuw %struct.AVFormatContext, ptr %37, i32 0, i32 4
  %39 = load ptr, ptr %38, align 8, !tbaa !33
  %40 = call i32 @avio_rl32(ptr noundef %39)
  %41 = load ptr, ptr %4, align 8, !tbaa !17
  %42 = getelementptr inbounds nuw %struct.AVStream, ptr %41, i32 0, i32 3
  %43 = load ptr, ptr %42, align 8, !tbaa !19
  %44 = getelementptr inbounds nuw %struct.AVCodecParameters, ptr %43, i32 0, i32 24
  %45 = getelementptr inbounds nuw %struct.AVChannelLayout, ptr %44, i32 0, i32 1
  store i32 %40, ptr %45, align 4, !tbaa !46
  %46 = load ptr, ptr %4, align 8, !tbaa !17
  %47 = getelementptr inbounds nuw %struct.AVStream, ptr %46, i32 0, i32 3
  %48 = load ptr, ptr %47, align 8, !tbaa !19
  %49 = getelementptr inbounds nuw %struct.AVCodecParameters, ptr %48, i32 0, i32 24
  %50 = getelementptr inbounds nuw %struct.AVChannelLayout, ptr %49, i32 0, i32 1
  %51 = load i32, ptr %50, align 4, !tbaa !46
  %52 = icmp ugt i32 %51, 512
  br i1 %52, label %61, label %53

53:                                               ; preds = %12
  %54 = load ptr, ptr %4, align 8, !tbaa !17
  %55 = getelementptr inbounds nuw %struct.AVStream, ptr %54, i32 0, i32 3
  %56 = load ptr, ptr %55, align 8, !tbaa !19
  %57 = getelementptr inbounds nuw %struct.AVCodecParameters, ptr %56, i32 0, i32 24
  %58 = getelementptr inbounds nuw %struct.AVChannelLayout, ptr %57, i32 0, i32 1
  %59 = load i32, ptr %58, align 4, !tbaa !46
  %60 = icmp sle i32 %59, 0
  br i1 %60, label %61, label %62

61:                                               ; preds = %53, %12
  store i32 -38, ptr %2, align 4
  store i32 1, ptr %6, align 4
  br label %116

62:                                               ; preds = %53
  %63 = load ptr, ptr %3, align 8, !tbaa !15
  %64 = getelementptr inbounds nuw %struct.AVFormatContext, ptr %63, i32 0, i32 4
  %65 = load ptr, ptr %64, align 8, !tbaa !33
  %66 = call i32 @avio_rl32(ptr noundef %65)
  store i32 %66, ptr %5, align 4, !tbaa !47
  %67 = zext i32 %66 to i64
  %68 = load ptr, ptr %3, align 8, !tbaa !15
  %69 = call ptr @ffformatcontext(ptr noundef %68)
  %70 = getelementptr inbounds nuw %struct.FFFormatContext, ptr %69, i32 0, i32 3
  store i64 %67, ptr %70, align 8, !tbaa !48
  %71 = load ptr, ptr %3, align 8, !tbaa !15
  %72 = getelementptr inbounds nuw %struct.AVFormatContext, ptr %71, i32 0, i32 4
  %73 = load ptr, ptr %72, align 8, !tbaa !33
  %74 = call i32 @avio_r8(ptr noundef %73)
  %75 = load ptr, ptr %3, align 8, !tbaa !15
  %76 = getelementptr inbounds nuw %struct.AVFormatContext, ptr %75, i32 0, i32 4
  %77 = load ptr, ptr %76, align 8, !tbaa !33
  %78 = call i32 @avio_rl32(ptr noundef %77)
  %79 = load ptr, ptr %4, align 8, !tbaa !17
  %80 = getelementptr inbounds nuw %struct.AVStream, ptr %79, i32 0, i32 3
  %81 = load ptr, ptr %80, align 8, !tbaa !19
  %82 = getelementptr inbounds nuw %struct.AVCodecParameters, ptr %81, i32 0, i32 26
  store i32 %78, ptr %82, align 4, !tbaa !53
  %83 = load ptr, ptr %4, align 8, !tbaa !17
  %84 = getelementptr inbounds nuw %struct.AVStream, ptr %83, i32 0, i32 3
  %85 = load ptr, ptr %84, align 8, !tbaa !19
  %86 = getelementptr inbounds nuw %struct.AVCodecParameters, ptr %85, i32 0, i32 26
  %87 = load i32, ptr %86, align 4, !tbaa !53
  %88 = icmp ugt i32 %87, 4194303
  br i1 %88, label %96, label %89

89:                                               ; preds = %62
  %90 = load ptr, ptr %4, align 8, !tbaa !17
  %91 = getelementptr inbounds nuw %struct.AVStream, ptr %90, i32 0, i32 3
  %92 = load ptr, ptr %91, align 8, !tbaa !19
  %93 = getelementptr inbounds nuw %struct.AVCodecParameters, ptr %92, i32 0, i32 26
  %94 = load i32, ptr %93, align 4, !tbaa !53
  %95 = icmp sle i32 %94, 0
  br i1 %95, label %96, label %97

96:                                               ; preds = %89, %62
  store i32 -1094995529, ptr %2, align 4
  store i32 1, ptr %6, align 4
  br label %116

97:                                               ; preds = %89
  %98 = load ptr, ptr %4, align 8, !tbaa !17
  %99 = getelementptr inbounds nuw %struct.AVStream, ptr %98, i32 0, i32 3
  %100 = load ptr, ptr %99, align 8, !tbaa !19
  %101 = getelementptr inbounds nuw %struct.AVCodecParameters, ptr %100, i32 0, i32 24
  %102 = getelementptr inbounds nuw %struct.AVChannelLayout, ptr %101, i32 0, i32 1
  %103 = load i32, ptr %102, align 4, !tbaa !46
  %104 = load ptr, ptr %4, align 8, !tbaa !17
  %105 = getelementptr inbounds nuw %struct.AVStream, ptr %104, i32 0, i32 3
  %106 = load ptr, ptr %105, align 8, !tbaa !19
  %107 = getelementptr inbounds nuw %struct.AVCodecParameters, ptr %106, i32 0, i32 26
  %108 = load i32, ptr %107, align 4, !tbaa !53
  %109 = mul nsw i32 %108, %103
  store i32 %109, ptr %107, align 4, !tbaa !53
  %110 = load ptr, ptr %3, align 8, !tbaa !15
  %111 = getelementptr inbounds nuw %struct.AVFormatContext, ptr %110, i32 0, i32 4
  %112 = load ptr, ptr %111, align 8, !tbaa !33
  %113 = load i32, ptr %5, align 4, !tbaa !47
  %114 = zext i32 %113 to i64
  %115 = call i64 @avio_seek(ptr noundef %112, i64 noundef %114, i32 noundef 0)
  store i32 0, ptr %2, align 4
  store i32 1, ptr %6, align 4
  br label %116

116:                                              ; preds = %97, %96, %61, %11
  call void @llvm.lifetime.end.p0(i64 4, ptr %5) #4
  call void @llvm.lifetime.end.p0(i64 8, ptr %4) #4
  %117 = load i32, ptr %2, align 4
  ret i32 %117
}