; Function Attrs: nounwind uwtable
define internal range(i32 -1094995529, 1) i32 @read_header(ptr noundef %0) #1 {
  %2 = tail call ptr @avformat_new_stream(ptr noundef %0, ptr noundef null) #3
  %.not = icmp eq ptr %2, null
  br i1 %.not, label %39, label %3

3:                                                ; preds = %1
  %4 = getelementptr inbounds nuw i8, ptr %2, i64 16
  %5 = load ptr, ptr %4, align 8, !tbaa !13
  store i32 1, ptr %5, align 8, !tbaa !23
  %6 = getelementptr inbounds nuw i8, ptr %5, i64 4
  store i32 69638, ptr %6, align 4, !tbaa !26
  %7 = getelementptr inbounds nuw i8, ptr %0, i64 32
  %8 = load ptr, ptr %7, align 8, !tbaa !27
  %9 = tail call i32 @avio_rl32(ptr noundef %8) #3
  %10 = load ptr, ptr %7, align 8, !tbaa !27
  %11 = tail call i32 @avio_rl32(ptr noundef %10) #3
  %12 = load ptr, ptr %7, align 8, !tbaa !27
  %13 = tail call i32 @avio_rl32(ptr noundef %12) #3
  %14 = load ptr, ptr %4, align 8, !tbaa !13
  %15 = getelementptr inbounds nuw i8, ptr %14, i64 152
  store i32 %13, ptr %15, align 8, !tbaa !39
  %16 = load ptr, ptr %7, align 8, !tbaa !27
  %17 = tail call i32 @avio_rl32(ptr noundef %16) #3
  %18 = load ptr, ptr %4, align 8, !tbaa !13
  %19 = getelementptr inbounds nuw i8, ptr %18, i64 132
  store i32 %17, ptr %19, align 4, !tbaa !40
  %20 = add i32 %17, -513
  %or.cond = icmp ult i32 %20, -512
  br i1 %or.cond, label %39, label %21

21:                                               ; preds = %3
  %22 = load ptr, ptr %7, align 8, !tbaa !27
  %23 = tail call i32 @avio_rl32(ptr noundef %22) #3
  %24 = zext i32 %23 to i64
  %25 = getelementptr inbounds nuw i8, ptr %0, i64 496
  store i64 %24, ptr %25, align 8, !tbaa !41
  %26 = load ptr, ptr %7, align 8, !tbaa !27
  %27 = tail call i32 @avio_r8(ptr noundef %26) #3
  %28 = load ptr, ptr %7, align 8, !tbaa !27
  %29 = tail call i32 @avio_rl32(ptr noundef %28) #3
  %30 = load ptr, ptr %4, align 8, !tbaa !13
  %31 = getelementptr inbounds nuw i8, ptr %30, i64 156
  store i32 %29, ptr %31, align 4, !tbaa !46
  %32 = add i32 %29, -4194304
  %or.cond26 = icmp ult i32 %32, -4194303
  br i1 %or.cond26, label %39, label %33

33:                                               ; preds = %21
  %34 = getelementptr inbounds nuw i8, ptr %30, i64 132
  %35 = load i32, ptr %34, align 4, !tbaa !40
  %36 = mul nsw i32 %35, %29
  store i32 %36, ptr %31, align 4, !tbaa !46
  %37 = load ptr, ptr %7, align 8, !tbaa !27
  %38 = tail call i64 @avio_seek(ptr noundef %37, i64 noundef %24, i32 noundef 0) #3
  br label %39

39:                                               ; preds = %21, %3, %1, %33
  %.0 = phi i32 [ 0, %33 ], [ -12, %1 ], [ -38, %3 ], [ -1094995529, %21 ]
  ret i32 %.0
}